; Function Attrs: nounwind sspstrong uwtable
define dso_local void @qmp_drive_backup(ptr noundef %0, ptr noundef %1) local_unnamed_addr #0 {
  %3 = alloca %struct.TransactionActionList, align 8
  %4 = alloca %struct.TransactionAction, align 8
  call void @llvm.lifetime.start.p0(i64 16, ptr nonnull %4) #14
  store i32 11, ptr %4, align 8
  %5 = getelementptr inbounds nuw i8, ptr %4, i64 4
  store i32 0, ptr %5, align 4
  %6 = getelementptr inbounds nuw i8, ptr %4, i64 8
  store ptr %0, ptr %6, align 8
  call void @llvm.lifetime.start.p0(i64 16, ptr nonnull %3) #14
  %7 = getelementptr inbounds nuw i8, ptr %3, i64 8
  store ptr %4, ptr %7, align 8
  store ptr null, ptr %3, align 8
  call void @qmp_transaction(ptr noundef nonnull %3, ptr noundef null, ptr noundef %1)
  call void @llvm.lifetime.end.p0(i64 16, ptr nonnull %3) #14
  call void @llvm.lifetime.end.p0(i64 16, ptr nonnull %4) #14
  ret void
}